; Function Attrs: mustprogress uwtable
define void @_ZN15VoipCallsDialog14removeAllCallsEv(ptr nocapture noundef nonnull readonly align 8 dereferenceable(480) %0) local_unnamed_addr #0 align 2 {
  %2 = getelementptr inbounds i8, ptr %0, i64 144
  %3 = load ptr, ptr %2, align 8
  tail call void @_ZN18VoipCallsInfoModel14removeAllCallsEv(ptr noundef nonnull align 8 dereferenceable(41) %3)
  %4 = getelementptr inbounds i8, ptr %0, i64 472
  %5 = load ptr, ptr %4, align 8
  %6 = tail call ptr @g_queue_peek_nth_link(ptr noundef %5, i32 noundef 0)
  %.not6 = icmp eq ptr %6, null
  br i1 %.not6, label %._crit_edge, label %.lr.ph

.lr.ph:                                           ; preds = %1, %.lr.ph
  %.07 = phi ptr [ %9, %.lr.ph ], [ %6, %1 ]
  %7 = load ptr, ptr %.07, align 8
  tail call void @voip_calls_free_callsinfo(ptr noundef %7)
  %8 = getelementptr inbounds i8, ptr %.07, i64 8
  %9 = load ptr, ptr %8, align 8
  %.not = icmp eq ptr %9, null
  br i1 %.not, label %._crit_edge, label %.lr.ph, !llvm.loop !19

._crit_edge:                                      ; preds = %.lr.ph, %1
  %10 = load ptr, ptr %4, align 8
  tail call void @g_queue_clear(ptr noundef %10)
  ret void
}